; Function Attrs: mustprogress uwtable
define hidden noundef i32 @_ZN12mpbq_manager12magnitude_lbERK4mpbq(ptr noundef nonnull readonly align 8 captures(none) dereferenceable(208) %0, ptr noundef nonnull align 8 dereferenceable(20) %1) local_unnamed_addr #3 align 2 {
  %3 = load i32, ptr %1, align 8, !tbaa !3
  %4 = icmp eq i32 %3, 0
  br i1 %4, label %18, label %5

5:                                                ; preds = %2
  %6 = icmp sgt i32 %3, 0
  %7 = load ptr, ptr %0, align 8, !tbaa !26
  %8 = getelementptr inbounds nuw i8, ptr %1, i64 16
  br i1 %6, label %9, label %13

9:                                                ; preds = %5
  %10 = tail call noundef i32 @_ZN11mpz_managerILb0EE4log2ERK3mpz(ptr noundef nonnull align 8 dereferenceable(600) %7, ptr noundef nonnull align 8 dereferenceable(16) %1)
  %11 = load i32, ptr %8, align 8, !tbaa !13
  %12 = sub i32 %10, %11
  br label %18

13:                                               ; preds = %5
  %14 = tail call noundef i32 @_ZN11mpz_managerILb0EE5mlog2ERK3mpz(ptr noundef nonnull align 8 dereferenceable(600) %7, ptr noundef nonnull align 8 dereferenceable(16) %1)
  %15 = load i32, ptr %8, align 8, !tbaa !13
  %16 = add i32 %14, 1
  %17 = sub i32 %16, %15
  br label %18

18:                                               ; preds = %2, %13, %9
  %.0 = phi i32 [ %12, %9 ], [ %17, %13 ], [ 0, %2 ]
  ret i32 %.0
}